target datalayout = "e-m:e-p270:32:32-p271:32:32-p272:64:64-i64:64-i128:128-f80:128-n8:16:32:64-S128"
target triple = "x86_64-pc-linux-gnu"

%struct.unw_context_t = type { [21 x i64] }
%struct.unw_cursor_t = type { [33 x i64] }
%struct._Unwind_Exception = type { i64, ptr, i64, i64 }

@stderr = external global ptr, align 8
@.str.4 = private unnamed_addr constant [53 x i8] c"libunwind: _Unwind_ForcedUnwind(ex_obj=%p, stop=%p)\0A\00", align 1

; Function Attrs: uwtable
define dso_local i32 @_Unwind_ForcedUnwind(ptr noundef %0, ptr noundef %1, ptr noundef %2) #0 {
  %4 = alloca ptr, align 8
  %5 = alloca ptr, align 8
  %6 = alloca ptr, align 8
  %7 = alloca %struct.unw_context_t, align 8
  %8 = alloca %struct.unw_cursor_t, align 8
  store ptr %0, ptr %4, align 8, !tbaa !4
  store ptr %1, ptr %5, align 8, !tbaa !29
  store ptr %2, ptr %6, align 8, !tbaa !29
  br label %9

9:                                                ; preds = %3
  %10 = call zeroext i1 @logAPIs()
  br i1 %10, label %11, label %22

11:                                               ; preds = %9
  br label %12

12:                                               ; preds = %11
  %13 = load ptr, ptr @stderr, align 8, !tbaa !9
  %14 = load ptr, ptr %4, align 8, !tbaa !4
  %15 = load ptr, ptr %5, align 8, !tbaa !29
  %16 = ptrtoint ptr %15 to i64
  %17 = inttoptr i64 %16 to ptr
  %18 = call i32 (ptr, ptr, ...) @fprintf(ptr noundef %13, ptr noundef @.str.4, ptr noundef %14, ptr noundef %17) #5
  %19 = load ptr, ptr @stderr, align 8, !tbaa !9
  %20 = call i32 @fflush(ptr noundef %19)
  br label %21

21:                                               ; preds = %12
  br label %22

22:                                               ; preds = %21, %9
  br label %23

23:                                               ; preds = %22
  call void @llvm.lifetime.start.p0(i64 168, ptr %7) #5
  call void @llvm.lifetime.start.p0(i64 264, ptr %8) #5
  %24 = call i32 @__unw_getcontext(ptr noundef %7)
  %25 = load ptr, ptr %5, align 8, !tbaa !29
  %26 = ptrtoint ptr %25 to i64
  %27 = load ptr, ptr %4, align 8, !tbaa !4
  %28 = getelementptr inbounds nuw %struct._Unwind_Exception, ptr %27, i32 0, i32 2
  store i64 %26, ptr %28, align 16, !tbaa !11
  %29 = load ptr, ptr %6, align 8, !tbaa !29
  %30 = ptrtoint ptr %29 to i64
  %31 = load ptr, ptr %4, align 8, !tbaa !4
  %32 = getelementptr inbounds nuw %struct._Unwind_Exception, ptr %31, i32 0, i32 3
  store i64 %30, ptr %32, align 8, !tbaa !14
  %33 = load ptr, ptr %4, align 8, !tbaa !4
  %34 = load ptr, ptr %5, align 8, !tbaa !29
  %35 = load ptr, ptr %6, align 8, !tbaa !29
  %36 = call i32 @unwind_phase2_forced(ptr noundef %7, ptr noundef %8, ptr noundef %33, ptr noundef %34, ptr noundef %35)
  call void @llvm.lifetime.end.p0(i64 264, ptr %8) #5
  call void @llvm.lifetime.end.p0(i64 168, ptr %7) #5
  ret i32 %36
}