; Function Attrs: uwtable
define dso_local noundef i32 @_Unwind_ForcedUnwind(ptr noundef %0, ptr noundef %1, ptr noundef %2) local_unnamed_addr #0 {
  %4 = alloca %struct.unw_context_t, align 8
  %5 = alloca %struct.unw_cursor_t, align 8
  %6 = tail call zeroext i1 @logAPIs()
  br i1 %6, label %7, label %12

7:                                                ; preds = %3
  %8 = load ptr, ptr @stderr, align 8, !tbaa !4
  %9 = tail call i32 (ptr, ptr, ...) @fprintf(ptr noundef %8, ptr noundef nonnull @.str.4, ptr noundef %0, ptr noundef %1) #7
  %10 = load ptr, ptr @stderr, align 8, !tbaa !4
  %11 = tail call i32 @fflush(ptr noundef %10)
  br label %12

12:                                               ; preds = %3, %7
  call void @llvm.lifetime.start.p0(i64 168, ptr nonnull %4) #8
  call void @llvm.lifetime.start.p0(i64 264, ptr nonnull %5) #8
  %13 = call i32 @__unw_getcontext(ptr noundef nonnull %4)
  %14 = ptrtoint ptr %1 to i64
  %15 = getelementptr inbounds nuw i8, ptr %0, i64 16
  store i64 %14, ptr %15, align 16, !tbaa !20
  %16 = ptrtoint ptr %2 to i64
  %17 = getelementptr inbounds nuw i8, ptr %0, i64 24
  store i64 %16, ptr %17, align 8, !tbaa !19
  call fastcc void @unwind_phase2_forced(ptr noundef %4, ptr noundef %5, ptr noundef %0, ptr noundef %1, ptr noundef %2)
  call void @llvm.lifetime.end.p0(i64 264, ptr nonnull %5) #8
  call void @llvm.lifetime.end.p0(i64 168, ptr nonnull %4) #8
  ret i32 2
}